target datalayout = "e-m:e-p270:32:32-p271:32:32-p272:64:64-i64:64-i128:128-f80:128-n8:16:32:64-S128"
target triple = "x86_64-pc-linux-gnu"

%struct.rsa_st = type { i32, ptr, i32, ptr, ptr, ptr, ptr, ptr, ptr, ptr, ptr, ptr, ptr, %struct.rsa_pss_params_30_st, ptr, ptr, %struct.crypto_ex_data_st, %struct.CRYPTO_REF_COUNT, i32, ptr, ptr, ptr, ptr, ptr, ptr, i32 }
%struct.rsa_pss_params_30_st = type { i32, %struct.anon, i32, i32 }
%struct.anon = type { i32, i32 }
%struct.crypto_ex_data_st = type { ptr, ptr }
%struct.CRYPTO_REF_COUNT = type { i32 }
%struct.rsa_meth_st = type { ptr, ptr, ptr, ptr, ptr, ptr, ptr, ptr, ptr, i32, ptr, ptr, ptr, ptr, ptr }

; Function Attrs: nounwind uwtable
define i32 @RSA_flags(ptr noundef %0) #0 {
  %2 = alloca ptr, align 8
  store ptr %0, ptr %2, align 8, !tbaa !3
  %3 = load ptr, ptr %2, align 8, !tbaa !3
  %4 = icmp eq ptr %3, null
  br i1 %4, label %5, label %6

5:                                                ; preds = %1
  br label %12

6:                                                ; preds = %1
  %7 = load ptr, ptr %2, align 8, !tbaa !3
  %8 = getelementptr inbounds nuw %struct.rsa_st, ptr %7, i32 0, i32 3
  %9 = load ptr, ptr %8, align 8, !tbaa !27
  %10 = getelementptr inbounds nuw %struct.rsa_meth_st, ptr %9, i32 0, i32 9
  %11 = load i32, ptr %10, align 8, !tbaa !33
  br label %12

12:                                               ; preds = %6, %5
  %13 = phi i32 [ 0, %5 ], [ %11, %6 ]
  ret i32 %13
}